; Function Attrs: mustprogress nofree norecurse nosync nounwind willreturn memory(write, inaccessiblemem: none) uwtable
define hidden void @lj_trace_initstate(ptr noundef %0) local_unnamed_addr #9 {
  %2 = getelementptr inbounds nuw i8, ptr %0, i64 1000
  %3 = ptrtoint ptr %2 to i64
  %4 = add nsw i64 %3, 15
  %5 = and i64 %4, -16
  %6 = inttoptr i64 %5 to ptr
  store i64 9223372036854775807, ptr %6, align 16, !tbaa !4
  %7 = getelementptr inbounds nuw i8, ptr %6, i64 8
  store i64 9223372036854775807, ptr %7, align 8, !tbaa !4
  %8 = getelementptr inbounds nuw i8, ptr %0, i64 1016
  %9 = ptrtoint ptr %8 to i64
  %10 = add nsw i64 %9, 15
  %11 = and i64 %10, -16
  %12 = inttoptr i64 %11 to ptr
  store i64 -9223372036854775808, ptr %12, align 16, !tbaa !4
  %13 = getelementptr inbounds nuw i8, ptr %12, i64 8
  store i64 -9223372036854775808, ptr %13, align 8, !tbaa !4
  %14 = getelementptr inbounds nuw i8, ptr %0, i64 1040
  store i64 4843621399236968448, ptr %14, align 8, !tbaa !4
  %15 = getelementptr inbounds nuw i8, ptr %0, i64 1048
  store i64 4895412794951729152, ptr %15, align 8, !tbaa !4
  %16 = getelementptr inbounds nuw i8, ptr %0, i64 996
  store i32 -545259520, ptr %16, align 4, !tbaa !56
  %17 = getelementptr inbounds nuw i8, ptr %0, i64 1056
  store i64 -4327959241903046656, ptr %17, align 8, !tbaa !4
  ret void
}